(dp0
S'failed'
p1
(lp2
S'4'
p3
aS'14'
p4
aS'67'
p5
aS'86'
p6
asS'source_names'
p7
(lp8
S'.'
p9
asS'ids'
p10
(dp11
I1
(S'/home/rupert/Aptana Studio 3 Workspace/PlingBack/plingback/plingback/input/tests.py'
p12
S'plingback.input.tests'
p13
S'InputControllerTests.test_create'
p14
tp15
sI2
(S'/home/rupert/Aptana Studio 3 Workspace/PlingBack/plingback/plingback/input/tests.py'
p16
g13
S'InputControllerTests.test_create_missing_pling_id'
p17
tp18
sI3
(S'/home/rupert/Aptana Studio 3 Workspace/PlingBack/plingback/plingback/input/tests.py'
p19
g13
S'InputControllerTests.test_create_with_attribute'
p20
tp21
sI4
(S'/home/rupert/Aptana Studio 3 Workspace/PlingBack/plingback/plingback/input/tests.py'
p22
g13
S'InputControllerTests.test_delete_attribute'
p23
tp24
sI5
(S'/home/rupert/Aptana Studio 3 Workspace/PlingBack/plingback/plingback/input/tests.py'
p25
g13
S'InputControllerTests.test_delete_disabled'
p26
tp27
sI6
(S'/home/rupert/Aptana Studio 3 Workspace/PlingBack/plingback/plingback/input/tests.py'
p28
g13
S'InputControllerTests.test_misplaced_feedback_id'
p29
tp30
sI7
(S'/home/rupert/Aptana Studio 3 Workspace/PlingBack/plingback/plingback/input/tests.py'
p31
g13
S'InputControllerTests.test_missing_feedback_id'
p32
tp33
sI8
(S'/home/rupert/Aptana Studio 3 Workspace/PlingBack/plingback/plingback/input/tests.py'
p34
g13
S'InputControllerTests.test_put_attribute'
p35
tp36
sI9
(S'/home/rupert/Aptana Studio 3 Workspace/PlingBack/plingback/plingback/input/tests.py'
p37
g13
S'JSAPITests.test_attribute_bad_method'
p38
tp39
sI10
(S'/home/rupert/Aptana Studio 3 Workspace/PlingBack/plingback/plingback/input/tests.py'
p40
g13
S'JSAPITests.test_create'
p41
tp42
sI11
(S'/home/rupert/Aptana Studio 3 Workspace/PlingBack/plingback/plingback/input/tests.py'
p43
g13
S'JSAPITests.test_create_bad_method'
p44
tp45
sI12
(S'/home/rupert/Aptana Studio 3 Workspace/PlingBack/plingback/plingback/input/tests.py'
p46
g13
S'JSAPITests.test_create_missing_pling_id'
p47
tp48
sI13
(S'/home/rupert/Aptana Studio 3 Workspace/PlingBack/plingback/plingback/input/tests.py'
p49
g13
S'JSAPITests.test_create_with_attribute'
p50
tp51
sI14
(S'/home/rupert/Aptana Studio 3 Workspace/PlingBack/plingback/plingback/input/tests.py'
p52
g13
S'JSAPITests.test_delete_attribute'
p53
tp54
sI15
(S'/home/rupert/Aptana Studio 3 Workspace/PlingBack/plingback/plingback/input/tests.py'
p55
g13
S'JSAPITests.test_delete_disabled'
p56
tp57
sI16
(S'/home/rupert/Aptana Studio 3 Workspace/PlingBack/plingback/plingback/input/tests.py'
p58
g13
S'JSAPITests.test_misplaced_feedback_id'
p59
tp60
sI17
(S'/home/rupert/Aptana Studio 3 Workspace/PlingBack/plingback/plingback/input/tests.py'
p61
g13
S'JSAPITests.test_missing_feedback_id'
p62
tp63
sI18
(S'/home/rupert/Aptana Studio 3 Workspace/PlingBack/plingback/plingback/input/tests.py'
p64
g13
S'JSAPITests.test_put_attribute'
p65
tp66
sI19
(S'/home/rupert/Aptana Studio 3 Workspace/PlingBack/plingback/plingback/output/tests.py'
p67
S'plingback.output.tests'
p68
S'OutputViewTest.test_excercise_view'
p69
tp70
sI20
(S'/home/rupert/Aptana Studio 3 Workspace/PlingBack/plingback/plingback/output/tests.py'
p71
g68
S'ResultFormatterTests.test_approval_output'
p72
tp73
sI21
(S'/home/rupert/Aptana Studio 3 Workspace/PlingBack/plingback/plingback/output/tests.py'
p74
g68
S'ResultFormatterTests.test_comment_output'
p75
tp76
sI22
(S'/home/rupert/Aptana Studio 3 Workspace/PlingBack/plingback/plingback/output/tests.py'
p77
g68
S'ResultFormatterTests.test_no_sparql_output'
p78
tp79
sI23
(S'/home/rupert/Aptana Studio 3 Workspace/PlingBack/plingback/plingback/output/tests.py'
p80
g68
S'ResultFormatterTests.test_rating_output'
p81
tp82
sI24
(S'/home/rupert/Aptana Studio 3 Workspace/PlingBack/plingback/plingback/output/tests.py'
p83
g68
S'ResultFormatterTests.test_scoped_count_output'
p84
tp85
sI25
(S'/home/rupert/Aptana Studio 3 Workspace/PlingBack/plingback/plingback/output/tests.py'
p86
g68
S'ResultFormatterTests.test_scoped_id_count_output'
p87
tp88
sI26
(S'/home/rupert/Aptana Studio 3 Workspace/PlingBack/plingback/plingback/sparql/tests.py'
p89
S'plingback.sparql.tests'
p90
S'SPARQLTests.test_None_activity_date_filter'
p91
tp92
sI27
(S'/home/rupert/Aptana Studio 3 Workspace/PlingBack/plingback/plingback/sparql/tests.py'
p93
g90
S'SPARQLTests.test_None_submission_date_filter'
p94
tp95
sI28
(S'/home/rupert/Aptana Studio 3 Workspace/PlingBack/plingback/plingback/sparql/tests.py'
p96
g90
S'SPARQLTests.test_activity_date_filter_from'
p97
tp98
sI29
(S'/home/rupert/Aptana Studio 3 Workspace/PlingBack/plingback/plingback/sparql/tests.py'
p99
g90
S'SPARQLTests.test_activity_date_filter_from_to'
p100
tp101
sI30
(S'/home/rupert/Aptana Studio 3 Workspace/PlingBack/plingback/plingback/sparql/tests.py'
p102
g90
S'SPARQLTests.test_activity_date_filter_to'
p103
tp104
sI31
(S'/home/rupert/Aptana Studio 3 Workspace/PlingBack/plingback/plingback/sparql/tests.py'
p105
g90
S'SPARQLTests.test_count_feedback_for_pling'
p106
tp107
sI32
(S'/home/rupert/Aptana Studio 3 Workspace/PlingBack/plingback/plingback/sparql/tests.py'
p108
g90
S'SPARQLTests.test_count_feedback_for_scope'
p109
tp110
sI33
(S'/home/rupert/Aptana Studio 3 Workspace/PlingBack/plingback/plingback/sparql/tests.py'
p111
g90
S'SPARQLTests.test_count_feedback_for_scope_and_id'
p112
tp113
sI34
(S'/home/rupert/Aptana Studio 3 Workspace/PlingBack/plingback/plingback/sparql/tests.py'
p114
g90
S'SPARQLTests.test_empty_activity_date_filter'
p115
tp116
sI35
(S'/home/rupert/Aptana Studio 3 Workspace/PlingBack/plingback/plingback/sparql/tests.py'
p117
g90
S'SPARQLTests.test_empty_submission_date_filter'
p118
tp119
sI36
(S'/home/rupert/Aptana Studio 3 Workspace/PlingBack/plingback/plingback/sparql/tests.py'
p120
g90
S'SPARQLTests.test_limit'
p121
tp122
sI37
(S'/home/rupert/Aptana Studio 3 Workspace/PlingBack/plingback/plingback/sparql/tests.py'
p123
g90
S'SPARQLTests.test_offset'
p124
tp125
sI38
(S'/home/rupert/Aptana Studio 3 Workspace/PlingBack/plingback/plingback/sparql/tests.py'
p126
g90
S'SPARQLTests.test_pling_approval_attribute'
p127
tp128
sI39
(S'/home/rupert/Aptana Studio 3 Workspace/PlingBack/plingback/plingback/sparql/tests.py'
p129
g90
S'SPARQLTests.test_pling_comment_attribute'
p130
tp131
sI40
(S'/home/rupert/Aptana Studio 3 Workspace/PlingBack/plingback/plingback/sparql/tests.py'
p132
g90
S'SPARQLTests.test_pling_rating_attribute'
p133
tp134
sI41
(S'/home/rupert/Aptana Studio 3 Workspace/PlingBack/plingback/plingback/sparql/tests.py'
p135
g90
S'SPARQLTests.test_scoped_approval_attribute'
p136
tp137
sI42
(S'/home/rupert/Aptana Studio 3 Workspace/PlingBack/plingback/plingback/sparql/tests.py'
p138
g90
S'SPARQLTests.test_scoped_rating_attribute'
p139
tp140
sI43
(S'/home/rupert/Aptana Studio 3 Workspace/PlingBack/plingback/plingback/sparql/tests.py'
p141
g90
S'SPARQLTests.test_submission_date_filter_after'
p142
tp143
sI44
(S'/home/rupert/Aptana Studio 3 Workspace/PlingBack/plingback/plingback/sparql/tests.py'
p144
g90
S'SPARQLTests.test_submission_date_filter_after_before'
p145
tp146
sI45
(S'/home/rupert/Aptana Studio 3 Workspace/PlingBack/plingback/plingback/sparql/tests.py'
p147
g90
S'SPARQLTests.test_submission_date_filter_before'
p148
tp149
sI46
(S'/home/rupert/Aptana Studio 3 Workspace/PlingBack/plingback/plingback/triples/tests.py'
p150
S'plingback.triples.tests'
p151
S'TripleFactoryTests.test_add_approval_attribute'
p152
tp153
sI47
(S'/home/rupert/Aptana Studio 3 Workspace/PlingBack/plingback/plingback/triples/tests.py'
p154
g151
S'TripleFactoryTests.test_add_attendance_attribute'
p155
tp156
sI48
(S'/home/rupert/Aptana Studio 3 Workspace/PlingBack/plingback/plingback/triples/tests.py'
p157
g151
S'TripleFactoryTests.test_add_comment_attribute'
p158
tp159
sI49
(S'/home/rupert/Aptana Studio 3 Workspace/PlingBack/plingback/plingback/triples/tests.py'
p160
g151
S'TripleFactoryTests.test_add_deterrent_attribute'
p161
tp162
sI50
(S'/home/rupert/Aptana Studio 3 Workspace/PlingBack/plingback/plingback/triples/tests.py'
p163
g151
S'TripleFactoryTests.test_add_multiple_deterrent_attribute_with_js_list'
p164
tp165
sI51
(S'/home/rupert/Aptana Studio 3 Workspace/PlingBack/plingback/plingback/triples/tests.py'
p166
g151
S'TripleFactoryTests.test_add_node_with_rating_attribute'
p167
tp168
sI52
(S'/home/rupert/Aptana Studio 3 Workspace/PlingBack/plingback/plingback/triples/tests.py'
p169
g151
S'TripleFactoryTests.test_add_rating_attribute'
p170
tp171
sI53
(S'/home/rupert/Aptana Studio 3 Workspace/PlingBack/plingback/plingback/triples/tests.py'
p172
g151
S'TripleFactoryTests.test_add_reviewer_attribute'
p173
tp174
sI54
(S'/home/rupert/Aptana Studio 3 Workspace/PlingBack/plingback/plingback/triples/tests.py'
p175
g151
S'TripleFactoryTests.test_bad_approval_attribute'
p176
tp177
sI55
(S'/home/rupert/Aptana Studio 3 Workspace/PlingBack/plingback/plingback/triples/tests.py'
p178
g151
S'TripleFactoryTests.test_bad_rating_attribute'
p179
tp180
sI56
(S'/home/rupert/Aptana Studio 3 Workspace/PlingBack/plingback/plingback/triples/tests.py'
p181
g151
S'TripleFactoryTests.test_empty_reviewer_attribute'
p182
tp183
sI57
(S'/home/rupert/Aptana Studio 3 Workspace/PlingBack/plingback/plingback/triples/tests.py'
p184
g151
S'TripleFactoryTests.test_feedback_helper_base'
p185
tp186
sI58
(S'/home/rupert/Aptana Studio 3 Workspace/PlingBack/plingback/plingback/triples/tests.py'
p187
g151
S'TripleFactoryTests.test_init_feedback_node'
p188
tp189
sI59
(S'/home/rupert/Aptana Studio 3 Workspace/PlingBack/plingback/plingback/triples/tests.py'
p190
g151
S'TripleFactoryTests.test_init_feedback_node_with_bad_submission_date'
p191
tp192
sI60
(S'/home/rupert/Aptana Studio 3 Workspace/PlingBack/plingback/plingback/triples/tests.py'
p193
g151
S'TripleFactoryTests.test_init_feedback_node_with_submission_date'
p194
tp195
sI61
(S'/home/rupert/Aptana Studio 3 Workspace/PlingBack/plingback/plingback/triples/tests.py'
p196
g151
S'TripleFactoryTests.test_init_feedback_node_with_version'
p197
tp198
sI62
(S'/home/rupert/Aptana Studio 3 Workspace/PlingBack/plingback/plingback/triples/tests.py'
p199
g151
S'TripleFactoryTests.test_missing_feedback_target'
p200
tp201
sI63
(S'/home/rupert/Aptana Studio 3 Workspace/PlingBack/plingback/plingback/triples/tests.py'
p202
g151
S'TripleFactoryTests.test_overwrite_rating_attribute'
p203
tp204
sI64
(S'/home/rupert/Aptana Studio 3 Workspace/PlingBack/plingback/plingback/triples/tests.py'
p205
g151
S'TripleFactoryTests.test_remove_approval_attribute'
p206
tp207
sI65
(S'/home/rupert/Aptana Studio 3 Workspace/PlingBack/plingback/plingback/triples/tests.py'
p208
g151
S'TripleFactoryTests.test_remove_attendance_attribute'
p209
tp210
sI66
(S'/home/rupert/Aptana Studio 3 Workspace/PlingBack/plingback/plingback/triples/tests.py'
p211
g151
S'TripleFactoryTests.test_remove_comment_attribute'
p212
tp213
sI67
(S'/home/rupert/Aptana Studio 3 Workspace/PlingBack/plingback/plingback/triples/tests.py'
p214
g151
S'TripleFactoryTests.test_remove_feedback_node'
p215
tp216
sI68
(S'/home/rupert/Aptana Studio 3 Workspace/PlingBack/plingback/plingback/triples/tests.py'
p217
g151
S'TripleFactoryTests.test_remove_multiple_deterrent_attributes'
p218
tp219
sI69
(S'/home/rupert/Aptana Studio 3 Workspace/PlingBack/plingback/plingback/triples/tests.py'
p220
g151
S'TripleFactoryTests.test_remove_rating_attribute'
p221
tp222
sI70
(S'/home/rupert/Aptana Studio 3 Workspace/PlingBack/plingback/plingback/triples/tests.py'
p223
g151
S'TripleFactoryTests.test_remove_reviewer_attribute'
p224
tp225
sI71
(S'/home/rupert/Aptana Studio 3 Workspace/PlingBack/plingback/plingback/triples/tests.py'
p226
g151
S'TripleFactoryTests.test_remove_unknown_attribute'
p227
tp228
sI72
(S'/home/rupert/Aptana Studio 3 Workspace/PlingBack/plingback/plingback/triples/tests.py'
p229
g151
S'TripleFactoryTests.test_select_attribute_to_add'
p230
tp231
sI73
(S'/home/rupert/Aptana Studio 3 Workspace/PlingBack/plingback/plingback/triples/tests.py'
p232
g151
S'TripleFactoryTests.test_unknown_attribute'
p233
tp234
sI74
(S'/home/rupert/Aptana Studio 3 Workspace/PlingBack/plingback/plingback/tests/functional_tests/tests.py'
p235
S'plingback.tests.functional_tests.tests'
p236
S'FunctionalTests.test_index_view'
p237
tp238
sI75
(S'/home/rupert/Aptana Studio 3 Workspace/PlingBack/plingback/plingback/tests/functional_tests/tests.py'
p239
g236
S'FunctionalTests.test_input_bare_post'
p240
tp241
sI76
(S'/home/rupert/Aptana Studio 3 Workspace/PlingBack/plingback/plingback/tests/functional_tests/tests.py'
p242
g236
S'FunctionalTests.test_input_bare_put'
p243
tp244
sI77
(S'/home/rupert/Aptana Studio 3 Workspace/PlingBack/plingback/plingback/tests/functional_tests/tests.py'
p245
g236
S'FunctionalTests.test_put_view_delete'
p246
tp247
sI78
(S'/home/rupert/Aptana Studio 3 Workspace/PlingBack/plingback/plingback/tests/tests.py'
p248
S'plingback.tests.tests'
p249
S'IntegrationTests.test_add_activity_data'
p250
tp251
sI79
(S'/home/rupert/Aptana Studio 3 Workspace/PlingBack/plingback/plingback/tests/tests.py'
p252
g249
S'IntegrationTests.test_add_activity_uris'
p253
tp254
sI80
(S'/home/rupert/Aptana Studio 3 Workspace/PlingBack/plingback/plingback/tests/tests.py'
p255
g249
S'IntegrationTests.test_index_view'
p256
tp257
sI81
(S'/home/rupert/Aptana Studio 3 Workspace/PlingBack/plingback/plingback/tests/tests.py'
p258
g249
S'IntegrationTests.test_input_bare_post'
p259
tp260
sI82
(S'/home/rupert/Aptana Studio 3 Workspace/PlingBack/plingback/plingback/tests/tests.py'
p261
g249
S'IntegrationTests.test_input_bare_put'
p262
tp263
sI83
(S'/home/rupert/Aptana Studio 3 Workspace/PlingBack/plingback/plingback/tests/tests.py'
p264
g249
S'IntegrationTests.test_input_post'
p265
tp266
sI84
(S'/home/rupert/Aptana Studio 3 Workspace/PlingBack/plingback/plingback/tests/tests.py'
p267
g249
S'IntegrationTests.test_input_post_rating'
p268
tp269
sI85
(S'/home/rupert/Aptana Studio 3 Workspace/PlingBack/plingback/plingback/tests/tests.py'
p270
g249
S'IntegrationTests.test_overwrite_rating'
p271
tp272
sI86
(S'/home/rupert/Aptana Studio 3 Workspace/PlingBack/plingback/plingback/tests/tests.py'
p273
g249
S'IntegrationTests.test_put_and_delete'
p274
tp275
sI87
(S'/home/rupert/Aptana Studio 3 Workspace/PlingBack/plingback/plingback/tests/tests.py'
p276
g249
S'IntegrationTests.test_put_rating'
p277
tp278
sI88
(S'/home/rupert/Aptana Studio 3 Workspace/PlingBack/plingback/plingback/tests/tests.py'
p279
g249
S'IntegrationTests.test_unaugmented_post_rating'
p280
tp281
ss.